; Function Attrs: mustprogress uwtable
define void @_ZNK5osgeo4proj9operation14Transformation7inverseEv(ptr dead_on_unwind noalias nocapture writable writeonly sret(%"class.dropbox::oxygen::nn.73") align 8 %0, ptr noundef nonnull align 8 dereferenceable(24) %1) unnamed_addr #0 align 2 personality ptr @__gxx_personality_v0 {
  %3 = alloca %"class.dropbox::oxygen::nn.68", align 8
  call void @_ZNK5osgeo4proj9operation14Transformation23inverseAsTransformationEv(ptr dead_on_unwind nonnull writable sret(%"class.dropbox::oxygen::nn.68") align 8 %3, ptr noundef nonnull align 8 dereferenceable(24) %1)
  %4 = load ptr, ptr %3, align 8
  %5 = icmp eq ptr %4, null
  br i1 %5, label %_ZN7dropbox6oxygen2nnISt10shared_ptrIN5osgeo4proj9operation14TransformationEEED2Ev.exit, label %6

6:                                                ; preds = %2
  %7 = load ptr, ptr %4, align 8
  %8 = getelementptr i8, ptr %7, i64 -24
  %9 = load i64, ptr %8, align 8
  %10 = getelementptr inbounds i8, ptr %4, i64 %9
  br label %_ZN7dropbox6oxygen2nnISt10shared_ptrIN5osgeo4proj9operation14TransformationEEED2Ev.exit

_ZN7dropbox6oxygen2nnISt10shared_ptrIN5osgeo4proj9operation14TransformationEEED2Ev.exit: ; preds = %2, %6
  %11 = phi ptr [ %10, %6 ], [ null, %2 ]
  store ptr %11, ptr %0, align 8
  %12 = getelementptr inbounds i8, ptr %0, i64 8
  %13 = getelementptr inbounds i8, ptr %3, i64 8
  %14 = load ptr, ptr %13, align 8
  store ptr %14, ptr %12, align 8
  ret void
}